; Function Attrs: mustprogress uwtable
define hidden noundef ptr @_Z33pj_projection_specific_setup_gs50P8PJconsts(ptr noundef %0) local_unnamed_addr #0 {
  %2 = tail call noalias dereferenceable_or_null(32) ptr @calloc(i64 noundef 1, i64 noundef 32) #6
  %3 = icmp eq ptr %2, null
  br i1 %3, label %4, label %6

4:                                                ; preds = %1
  %5 = tail call noundef ptr @_Z21pj_default_destructorP8PJconstsi(ptr noundef %0, i32 noundef 4096)
  br label %24

6:                                                ; preds = %1
  %7 = getelementptr inbounds nuw i8, ptr %0, i64 88
  store ptr %2, ptr %7, align 8, !tbaa !3
  %8 = getelementptr inbounds nuw i8, ptr %2, i64 24
  store i32 9, ptr %8, align 8, !tbaa !36
  %9 = getelementptr inbounds nuw i8, ptr %0, i64 440
  store double 0xC000C152382D7365, ptr %9, align 8, !tbaa !38
  %10 = getelementptr inbounds nuw i8, ptr %0, i64 448
  store double 0x3FE921FB54442D18, ptr %10, align 8, !tbaa !39
  %11 = getelementptr inbounds nuw i8, ptr %0, i64 216
  %12 = load double, ptr %11, align 8, !tbaa !41
  %13 = fcmp une double %12, 0.000000e+00
  %14 = getelementptr inbounds nuw i8, ptr %0, i64 168
  br i1 %13, label %16, label %15

15:                                               ; preds = %6
  store ptr @_ZZ33pj_projection_specific_setup_gs50P8PJconstsE3ABs, ptr %2, align 8, !tbaa !40
  store double 0x41584DAD40000000, ptr %14, align 8, !tbaa !51
  br label %_ZL14mod_ster_setupP8PJconsts.exit

16:                                               ; preds = %6
  store ptr @_ZZ33pj_projection_specific_setup_gs50P8PJconstsE3ABe, ptr %2, align 8, !tbaa !40
  store double 0x415854B79999999A, ptr %14, align 8, !tbaa !51
  store double 6.768660e-03, ptr %11, align 8, !tbaa !41
  %17 = getelementptr inbounds nuw i8, ptr %0, i64 208
  store double 0x3FB50FC4DF8B5B25, ptr %17, align 8, !tbaa !52
  br label %_ZL14mod_ster_setupP8PJconsts.exit

_ZL14mod_ster_setupP8PJconsts.exit:               ; preds = %15, %16
  %.0.i = phi double [ 0x3FE9062DD085FA20, %16 ], [ 0x3FE921FB54442D18, %15 ]
  %18 = tail call double @sin(double noundef %.0.i) #7, !tbaa !53
  %19 = getelementptr inbounds nuw i8, ptr %2, i64 16
  store double %18, ptr %19, align 8, !tbaa !42
  %20 = tail call double @cos(double noundef %.0.i) #7, !tbaa !53
  %21 = getelementptr inbounds nuw i8, ptr %2, i64 8
  store double %20, ptr %21, align 8, !tbaa !43
  %22 = getelementptr inbounds nuw i8, ptr %0, i64 112
  store ptr @_ZL18mod_ster_e_inverse5PJ_XYP8PJconsts, ptr %22, align 8, !tbaa !44
  %23 = getelementptr inbounds nuw i8, ptr %0, i64 104
  store ptr @_ZL18mod_ster_e_forward5PJ_LPP8PJconsts, ptr %23, align 8, !tbaa !45
  br label %24

24:                                               ; preds = %_ZL14mod_ster_setupP8PJconsts.exit, %4
  %.0 = phi ptr [ %5, %4 ], [ %0, %_ZL14mod_ster_setupP8PJconsts.exit ]
  ret ptr %.0
}